; Function Attrs: mustprogress uwtable
define hidden noundef i32 @mbedtls_pk_verify(ptr noundef readonly captures(none) %0, i32 noundef %1, ptr noundef %2, i64 noundef %3, ptr noundef %4, i64 noundef %5) local_unnamed_addr #1 {
  %7 = load ptr, ptr %0, align 8, !tbaa !3
  %8 = icmp eq ptr %7, null
  br i1 %8, label %mbedtls_pk_verify_restartable.exit, label %9

9:                                                ; preds = %6
  %.not.i.i = icmp eq i64 %3, 0
  br i1 %.not.i.i, label %10, label %16

10:                                               ; preds = %9
  %11 = tail call ptr @mbedtls_md_info_from_type(i32 noundef %1)
  %12 = icmp eq ptr %11, null
  br i1 %12, label %mbedtls_pk_verify_restartable.exit, label %13

13:                                               ; preds = %10
  %14 = tail call zeroext i8 @mbedtls_md_get_size(ptr noundef nonnull %11)
  %15 = zext i8 %14 to i64
  %.pre.i = load ptr, ptr %0, align 8, !tbaa !3
  br label %16

16:                                               ; preds = %13, %9
  %17 = phi ptr [ %7, %9 ], [ %.pre.i, %13 ]
  %.011.ph.i = phi i64 [ %3, %9 ], [ %15, %13 ]
  %18 = getelementptr inbounds nuw i8, ptr %17, i64 32
  %19 = load ptr, ptr %18, align 8, !tbaa !16
  %20 = icmp eq ptr %19, null
  br i1 %20, label %mbedtls_pk_verify_restartable.exit, label %21

21:                                               ; preds = %16
  %22 = getelementptr inbounds nuw i8, ptr %0, i64 8
  %23 = load ptr, ptr %22, align 8, !tbaa !13
  %24 = tail call noundef i32 %19(ptr noundef %23, i32 noundef %1, ptr noundef %2, i64 noundef %.011.ph.i, ptr noundef %4, i64 noundef %5)
  br label %mbedtls_pk_verify_restartable.exit

mbedtls_pk_verify_restartable.exit:               ; preds = %6, %10, %16, %21
  %.0.i = phi i32 [ %24, %21 ], [ -16000, %6 ], [ -16128, %16 ], [ -16000, %10 ]
  ret i32 %.0.i
}